target datalayout = "e-m:e-p270:32:32-p271:32:32-p272:64:64-i64:64-i128:128-f80:128-n8:16:32:64-S128"
target triple = "x86_64-pc-linux-gnu"

%"class.rocksdb::BlobFileGarbage" = type { i64, i64, i64 }

; Function Attrs: mustprogress nounwind uwtable
define linkonce_odr noundef i64 @_ZNK7rocksdb15BlobFileGarbage19GetGarbageBlobBytesEv(ptr noundef nonnull align 8 dereferenceable(24) %0) #4 comdat align 2 {
  %2 = alloca ptr, align 8
  store ptr %0, ptr %2, align 8, !tbaa !4
  %3 = load ptr, ptr %2, align 8
  %4 = getelementptr inbounds nuw %"class.rocksdb::BlobFileGarbage", ptr %3, i32 0, i32 2
  %5 = load i64, ptr %4, align 8, !tbaa !15
  ret i64 %5
}

; Function Attrs: mustprogress nounwind uwtable
define linkonce_odr noundef i64 @_ZNK7rocksdb15BlobFileGarbage19GetGarbageBlobCountEv(ptr noundef nonnull align 8 dereferenceable(24) %0) #4 comdat align 2 {
  %2 = alloca ptr, align 8
  store ptr %0, ptr %2, align 8, !tbaa !4
  %3 = load ptr, ptr %2, align 8
  %4 = getelementptr inbounds nuw %"class.rocksdb::BlobFileGarbage", ptr %3, i32 0, i32 1
  %5 = load i64, ptr %4, align 8, !tbaa !14
  ret i64 %5
}

; Function Attrs: mustprogress nounwind uwtable
define linkonce_odr noundef i64 @_ZNK7rocksdb15BlobFileGarbage17GetBlobFileNumberEv(ptr noundef nonnull align 8 dereferenceable(24) %0) #4 comdat align 2 {
  %2 = alloca ptr, align 8
  store ptr %0, ptr %2, align 8, !tbaa !4
  %3 = load ptr, ptr %2, align 8
  %4 = getelementptr inbounds nuw %"class.rocksdb::BlobFileGarbage", ptr %3, i32 0, i32 0
  %5 = load i64, ptr %4, align 8, !tbaa !11
  ret i64 %5
}

; Function Attrs: mustprogress uwtable
define noundef zeroext i1 @_ZN7rocksdbeqERKNS_15BlobFileGarbageES2_(ptr noundef nonnull align 8 dereferenceable(24) %0, ptr noundef nonnull align 8 dereferenceable(24) %1) #0 {
  %3 = alloca ptr, align 8
  %4 = alloca ptr, align 8
  store ptr %0, ptr %3, align 8, !tbaa !4
  store ptr %1, ptr %4, align 8, !tbaa !4
  %5 = load ptr, ptr %3, align 8, !tbaa !4
  %6 = call noundef i64 @_ZNK7rocksdb15BlobFileGarbage17GetBlobFileNumberEv(ptr noundef nonnull align 8 dereferenceable(24) %5)
  %7 = load ptr, ptr %4, align 8, !tbaa !4
  %8 = call noundef i64 @_ZNK7rocksdb15BlobFileGarbage17GetBlobFileNumberEv(ptr noundef nonnull align 8 dereferenceable(24) %7)
  %9 = icmp eq i64 %6, %8
  br i1 %9, label %10, label %22

10:                                               ; preds = %2
  %11 = load ptr, ptr %3, align 8, !tbaa !4
  %12 = call noundef i64 @_ZNK7rocksdb15BlobFileGarbage19GetGarbageBlobCountEv(ptr noundef nonnull align 8 dereferenceable(24) %11)
  %13 = load ptr, ptr %4, align 8, !tbaa !4
  %14 = call noundef i64 @_ZNK7rocksdb15BlobFileGarbage19GetGarbageBlobCountEv(ptr noundef nonnull align 8 dereferenceable(24) %13)
  %15 = icmp eq i64 %12, %14
  br i1 %15, label %16, label %22

16:                                               ; preds = %10
  %17 = load ptr, ptr %3, align 8, !tbaa !4
  %18 = call noundef i64 @_ZNK7rocksdb15BlobFileGarbage19GetGarbageBlobBytesEv(ptr noundef nonnull align 8 dereferenceable(24) %17)
  %19 = load ptr, ptr %4, align 8, !tbaa !4
  %20 = call noundef i64 @_ZNK7rocksdb15BlobFileGarbage19GetGarbageBlobBytesEv(ptr noundef nonnull align 8 dereferenceable(24) %19)
  %21 = icmp eq i64 %18, %20
  br label %22

22:                                               ; preds = %16, %10, %2
  %23 = phi i1 [ false, %10 ], [ false, %2 ], [ %21, %16 ]
  ret i1 %23
}

; Function Attrs: mustprogress uwtable
define noundef zeroext i1 @_ZN7rocksdbneERKNS_15BlobFileGarbageES2_(ptr noundef nonnull align 8 dereferenceable(24) %0, ptr noundef nonnull align 8 dereferenceable(24) %1) #0 {
  %3 = alloca ptr, align 8
  %4 = alloca ptr, align 8
  store ptr %0, ptr %3, align 8, !tbaa !4
  store ptr %1, ptr %4, align 8, !tbaa !4
  %5 = load ptr, ptr %3, align 8, !tbaa !4
  %6 = load ptr, ptr %4, align 8, !tbaa !4
  %7 = call noundef zeroext i1 @_ZN7rocksdbeqERKNS_15BlobFileGarbageES2_(ptr noundef nonnull align 8 dereferenceable(24) %5, ptr noundef nonnull align 8 dereferenceable(24) %6)
  %8 = xor i1 %7, true
  ret i1 %8
}