; Function Attrs: mustprogress nofree norecurse nosync nounwind willreturn memory(argmem: read) uwtable
define noundef zeroext i1 @_ZN7rocksdbneERKNS_15BlobFileGarbageES2_(ptr noundef nonnull readonly align 8 captures(none) dereferenceable(24) %0, ptr noundef nonnull readonly align 8 captures(none) dereferenceable(24) %1) local_unnamed_addr #5 {
  %3 = load i64, ptr %0, align 8, !tbaa !4
  %4 = load i64, ptr %1, align 8, !tbaa !4
  %5 = icmp eq i64 %3, %4
  br i1 %5, label %6, label %_ZN7rocksdbeqERKNS_15BlobFileGarbageES2_.exit

6:                                                ; preds = %2
  %7 = getelementptr inbounds nuw i8, ptr %0, i64 8
  %8 = load i64, ptr %7, align 8, !tbaa !17
  %9 = getelementptr inbounds nuw i8, ptr %1, i64 8
  %10 = load i64, ptr %9, align 8, !tbaa !17
  %11 = icmp eq i64 %8, %10
  br i1 %11, label %12, label %_ZN7rocksdbeqERKNS_15BlobFileGarbageES2_.exit

12:                                               ; preds = %6
  %13 = getelementptr inbounds nuw i8, ptr %0, i64 16
  %14 = load i64, ptr %13, align 8, !tbaa !18
  %15 = getelementptr inbounds nuw i8, ptr %1, i64 16
  %16 = load i64, ptr %15, align 8, !tbaa !18
  %17 = icmp ne i64 %14, %16
  br label %_ZN7rocksdbeqERKNS_15BlobFileGarbageES2_.exit

_ZN7rocksdbeqERKNS_15BlobFileGarbageES2_.exit:    ; preds = %2, %6, %12
  %18 = phi i1 [ true, %6 ], [ true, %2 ], [ %17, %12 ]
  ret i1 %18
}